; ModuleID = '58/703.c'
source_filename = "58/703.c"
target datalayout = "e-m:e-p270:32:32-p271:32:32-p272:64:64-i64:64-f80:128-n8:16:32:64-S128"
target triple = "x86_64-pc-linux-gnu"

@.str = private unnamed_addr constant [3 x i8] c"%d\00", align 1
@.str.1 = private unnamed_addr constant [3 x i8] c"0\0A\00", align 1
@.str.2 = private unnamed_addr constant [3 x i8] c"1\0A\00", align 1

; Function Attrs: noinline nounwind uwtable
define dso_local i32 @main() #0 {
  %1 = alloca i32, align 4
  %2 = alloca i32, align 4
  %3 = alloca i32, align 4
  %4 = alloca i32, align 4
  %5 = alloca i32, align 4
  %6 = alloca [500 x [1000 x i8]], align 16
  %7 = alloca [2 x i8], align 1
  store i32 0, i32* %1, align 4
  %8 = call i32 (i8*, ...) @__isoc99_scanf(i8* getelementptr inbounds ([3 x i8], [3 x i8]* @.str, i64 0, i64 0), i32* %2)
  %9 = getelementptr inbounds [2 x i8], [2 x i8]* %7, i64 0, i64 0
  %10 = call i32 (i8*, ...) bitcast (i32 (...)* @gets to i32 (i8*, ...)*)(i8* %9)
  store i32 0, i32* %3, align 4
  br label %11

11:                                               ; preds = %157, %0
  %12 = load i32, i32* %3, align 4
  %13 = load i32, i32* %2, align 4
  %14 = icmp slt i32 %12, %13
  br i1 %14, label %15, label %160

15:                                               ; preds = %11
  %16 = load i32, i32* %3, align 4
  %17 = sext i32 %16 to i64
  %18 = getelementptr inbounds [500 x [1000 x i8]], [500 x [1000 x i8]]* %6, i64 0, i64 %17
  %19 = getelementptr inbounds [1000 x i8], [1000 x i8]* %18, i64 0, i64 0
  %20 = call i32 (i8*, ...) bitcast (i32 (...)* @gets to i32 (i8*, ...)*)(i8* %19)
  %21 = load i32, i32* %3, align 4
  %22 = sext i32 %21 to i64
  %23 = getelementptr inbounds [500 x [1000 x i8]], [500 x [1000 x i8]]* %6, i64 0, i64 %22
  %24 = getelementptr inbounds [1000 x i8], [1000 x i8]* %23, i64 0, i64 0
  %25 = call i64 @strlen(i8* %24) #3
  %26 = trunc i64 %25 to i32
  store i32 %26, i32* %5, align 4
  %27 = load i32, i32* %3, align 4
  %28 = sext i32 %27 to i64
  %29 = getelementptr inbounds [500 x [1000 x i8]], [500 x [1000 x i8]]* %6, i64 0, i64 %28
  %30 = getelementptr inbounds [1000 x i8], [1000 x i8]* %29, i64 0, i64 0
  %31 = load i8, i8* %30, align 8
  %32 = sext i8 %31 to i32
  %33 = icmp eq i32 %32, 95
  br i1 %33, label %66, label %34

34:                                               ; preds = %15
  %35 = load i32, i32* %3, align 4
  %36 = sext i32 %35 to i64
  %37 = getelementptr inbounds [500 x [1000 x i8]], [500 x [1000 x i8]]* %6, i64 0, i64 %36
  %38 = getelementptr inbounds [1000 x i8], [1000 x i8]* %37, i64 0, i64 0
  %39 = load i8, i8* %38, align 8
  %40 = sext i8 %39 to i32
  %41 = icmp sle i32 %40, 122
  br i1 %41, label %42, label %50

42:                                               ; preds = %34
  %43 = load i32, i32* %3, align 4
  %44 = sext i32 %43 to i64
  %45 = getelementptr inbounds [500 x [1000 x i8]], [500 x [1000 x i8]]* %6, i64 0, i64 %44
  %46 = getelementptr inbounds [1000 x i8], [1000 x i8]* %45, i64 0, i64 0
  %47 = load i8, i8* %46, align 8
  %48 = sext i8 %47 to i32
  %49 = icmp sge i32 %48, 97
  br i1 %49, label %66, label %50

50:                                               ; preds = %42, %34
  %51 = load i32, i32* %3, align 4
  %52 = sext i32 %51 to i64
  %53 = getelementptr inbounds [500 x [1000 x i8]], [500 x [1000 x i8]]* %6, i64 0, i64 %52
  %54 = getelementptr inbounds [1000 x i8], [1000 x i8]* %53, i64 0, i64 0
  %55 = load i8, i8* %54, align 8
  %56 = sext i8 %55 to i32
  %57 = icmp sle i32 %56, 90
  br i1 %57, label %58, label %154

58:                                               ; preds = %50
  %59 = load i32, i32* %3, align 4
  %60 = sext i32 %59 to i64
  %61 = getelementptr inbounds [500 x [1000 x i8]], [500 x [1000 x i8]]* %6, i64 0, i64 %60
  %62 = getelementptr inbounds [1000 x i8], [1000 x i8]* %61, i64 0, i64 0
  %63 = load i8, i8* %62, align 8
  %64 = sext i8 %63 to i32
  %65 = icmp sge i32 %64, 65
  br i1 %65, label %66, label %154

66:                                               ; preds = %58, %42, %15
  store i32 0, i32* %4, align 4
  br label %67

67:                                               ; preds = %144, %66
  %68 = load i32, i32* %4, align 4
  %69 = load i32, i32* %5, align 4
  %70 = icmp slt i32 %68, %69
  br i1 %70, label %71, label %147

71:                                               ; preds = %67
  %72 = load i32, i32* %3, align 4
  %73 = sext i32 %72 to i64
  %74 = getelementptr inbounds [500 x [1000 x i8]], [500 x [1000 x i8]]* %6, i64 0, i64 %73
  %75 = load i32, i32* %4, align 4
  %76 = sext i32 %75 to i64
  %77 = getelementptr inbounds [1000 x i8], [1000 x i8]* %74, i64 0, i64 %76
  %78 = load i8, i8* %77, align 1
  %79 = sext i8 %78 to i32
  %80 = icmp sle i32 %79, 122
  br i1 %80, label %81, label %91

81:                                               ; preds = %71
  %82 = load i32, i32* %3, align 4
  %83 = sext i32 %82 to i64
  %84 = getelementptr inbounds [500 x [1000 x i8]], [500 x [1000 x i8]]* %6, i64 0, i64 %83
  %85 = load i32, i32* %4, align 4
  %86 = sext i32 %85 to i64
  %87 = getelementptr inbounds [1000 x i8], [1000 x i8]* %84, i64 0, i64 %86
  %88 = load i8, i8* %87, align 1
  %89 = sext i8 %88 to i32
  %90 = icmp sge i32 %89, 97
  br i1 %90, label %141, label %91

91:                                               ; preds = %81, %71
  %92 = load i32, i32* %3, align 4
  %93 = sext i32 %92 to i64
  %94 = getelementptr inbounds [500 x [1000 x i8]], [500 x [1000 x i8]]* %6, i64 0, i64 %93
  %95 = load i32, i32* %4, align 4
  %96 = sext i32 %95 to i64
  %97 = getelementptr inbounds [1000 x i8], [1000 x i8]* %94, i64 0, i64 %96
  %98 = load i8, i8* %97, align 1
  %99 = sext i8 %98 to i32
  %100 = icmp sle i32 %99, 90
  br i1 %100, label %101, label %111

101:                                              ; preds = %91
  %102 = load i32, i32* %3, align 4
  %103 = sext i32 %102 to i64
  %104 = getelementptr inbounds [500 x [1000 x i8]], [500 x [1000 x i8]]* %6, i64 0, i64 %103
  %105 = load i32, i32* %4, align 4
  %106 = sext i32 %105 to i64
  %107 = getelementptr inbounds [1000 x i8], [1000 x i8]* %104, i64 0, i64 %106
  %108 = load i8, i8* %107, align 1
  %109 = sext i8 %108 to i32
  %110 = icmp sge i32 %109, 65
  br i1 %110, label %141, label %111

111:                                              ; preds = %101, %91
  %112 = load i32, i32* %3, align 4
  %113 = sext i32 %112 to i64
  %114 = getelementptr inbounds [500 x [1000 x i8]], [500 x [1000 x i8]]* %6, i64 0, i64 %113
  %115 = load i32, i32* %4, align 4
  %116 = sext i32 %115 to i64
  %117 = getelementptr inbounds [1000 x i8], [1000 x i8]* %114, i64 0, i64 %116
  %118 = load i8, i8* %117, align 1
  %119 = sext i8 %118 to i32
  %120 = icmp sle i32 %119, 57
  br i1 %120, label %121, label %131

121:                                              ; preds = %111
  %122 = load i32, i32* %3, align 4
  %123 = sext i32 %122 to i64
  %124 = getelementptr inbounds [500 x [1000 x i8]], [500 x [1000 x i8]]* %6, i64 0, i64 %123
  %125 = load i32, i32* %4, align 4
  %126 = sext i32 %125 to i64
  %127 = getelementptr inbounds [1000 x i8], [1000 x i8]* %124, i64 0, i64 %126
  %128 = load i8, i8* %127, align 1
  %129 = sext i8 %128 to i32
  %130 = icmp sge i32 %129, 48
  br i1 %130, label %141, label %131

131:                                              ; preds = %121, %111
  %132 = load i32, i32* %3, align 4
  %133 = sext i32 %132 to i64
  %134 = getelementptr inbounds [500 x [1000 x i8]], [500 x [1000 x i8]]* %6, i64 0, i64 %133
  %135 = load i32, i32* %4, align 4
  %136 = sext i32 %135 to i64
  %137 = getelementptr inbounds [1000 x i8], [1000 x i8]* %134, i64 0, i64 %136
  %138 = load i8, i8* %137, align 1
  %139 = sext i8 %138 to i32
  %140 = icmp eq i32 %139, 95
  br i1 %140, label %141, label %142

141:                                              ; preds = %131, %121, %101, %81
  br label %144

142:                                              ; preds = %131
  %143 = call i32 (i8*, ...) @printf(i8* getelementptr inbounds ([3 x i8], [3 x i8]* @.str.1, i64 0, i64 0))
  br label %147

144:                                              ; preds = %141
  %145 = load i32, i32* %4, align 4
  %146 = add nsw i32 %145, 1
  store i32 %146, i32* %4, align 4
  br label %67

147:                                              ; preds = %142, %67
  %148 = load i32, i32* %4, align 4
  %149 = load i32, i32* %5, align 4
  %150 = icmp eq i32 %148, %149
  br i1 %150, label %151, label %153

151:                                              ; preds = %147
  %152 = call i32 (i8*, ...) @printf(i8* getelementptr inbounds ([3 x i8], [3 x i8]* @.str.2, i64 0, i64 0))
  br label %153

153:                                              ; preds = %151, %147
  br label %156

154:                                              ; preds = %58, %50
  %155 = call i32 (i8*, ...) @printf(i8* getelementptr inbounds ([3 x i8], [3 x i8]* @.str.1, i64 0, i64 0))
  br label %156

156:                                              ; preds = %154, %153
  br label %157

157:                                              ; preds = %156
  %158 = load i32, i32* %3, align 4
  %159 = add nsw i32 %158, 1
  store i32 %159, i32* %3, align 4
  br label %11

160:                                              ; preds = %11
  ret i32 0
}

declare dso_local i32 @__isoc99_scanf(i8*, ...) #1

declare dso_local i32 @gets(...) #1

; Function Attrs: nounwind readonly
declare dso_local i64 @strlen(i8*) #2

declare dso_local i32 @printf(i8*, ...) #1


!llvm.module.flags = !{!0}
!llvm.ident = !{!1}

!0 = !{i32 1, !"wchar_size", i32 4}
!1 = !{!"clang version 10.0.0-4ubuntu1 "}
